target datalayout = "e-m:e-p270:32:32-p271:32:32-p272:64:64-i64:64-i128:128-f80:128-n8:16:32:64-S128"
target triple = "x86_64-pc-linux-gnu"

%"class.llvm::SDValue" = type <{ ptr, i32, [4 x i8] }>
%"class.llvm::DebugLoc" = type { %"class.llvm::TypedTrackingMDRef" }
%"class.llvm::TypedTrackingMDRef" = type { %"class.llvm::TrackingMDRef" }
%"class.llvm::TrackingMDRef" = type { ptr }
%"class.llvm::ArrayRef.328" = type { ptr, i64 }
%"struct.llvm::SDNodeFlags" = type { i16 }
%"class.llvm::SmallVectorBase.11" = type { ptr, i32, i32 }
%"class.llvm::ilist_node_base" = type { %"class.llvm::ilist_detail::node_base_prevnext" }
%"class.llvm::ilist_detail::node_base_prevnext" = type { ptr, ptr }
%"class.llvm::SDNode" = type { %"class.llvm::FoldingSetBase::Node", %"class.llvm::ilist_node", i32, %"struct.llvm::SDNodeFlags", %union.anon.280, i16, i32, ptr, ptr, ptr, i16, i16, i32, %"class.llvm::DebugLoc", i32, i32 }
%"class.llvm::FoldingSetBase::Node" = type { ptr }
%"class.llvm::ilist_node" = type { %"class.llvm::ilist_node_impl.278" }
%"class.llvm::ilist_node_impl.278" = type { %"class.llvm::ilist_node_base" }
%union.anon.280 = type { %"class.llvm::SDNode::LSBaseSDNodeBitfields" }
%"class.llvm::SDNode::LSBaseSDNodeBitfields" = type { i16 }
%"class.llvm::SDUse" = type { %"class.llvm::SDValue", ptr, ptr, ptr }
%"class.llvm::SmallVector.422" = type { %"class.llvm::SmallVectorImpl.423", %"struct.llvm::SmallVectorStorage.426" }
%"class.llvm::SmallVectorImpl.423" = type { %"class.llvm::SmallVectorTemplateBase.424" }
%"class.llvm::SmallVectorTemplateBase.424" = type { %"class.llvm::SmallVectorTemplateCommon.425" }
%"class.llvm::SmallVectorTemplateCommon.425" = type { %"class.llvm::SmallVectorBase.11" }
%"struct.llvm::SmallVectorStorage.426" = type { [64 x i8] }
%class.anon.453 = type { ptr, i32, ptr }
%"class.llvm::ArrayRef.454" = type { ptr, i64 }

@_ZZN12_GLOBAL__N_119AArch64DAGToDAGISel15createZMulTupleEN4llvm8ArrayRefINS1_7SDValueEEEE11RegClassIDs = internal constant [3 x i32] [i32 105, i32 0, i32 192], align 4
@_ZZN12_GLOBAL__N_119AArch64DAGToDAGISel15createZMulTupleEN4llvm8ArrayRefINS1_7SDValueEEEE7SubRegs = internal constant [4 x i32] [i32 39, i32 40, i32 41, i32 42], align 16

; Function Attrs: mustprogress nounwind uwtable
define linkonce_odr hidden noundef ptr @_ZNK4llvm25SmallVectorTemplateCommonINS_7SDValueEvE10getFirstElEv(ptr noundef nonnull align 8 dereferenceable(16) %0) #0 comdat align 2 {
  %2 = alloca ptr, align 8
  store ptr %0, ptr %2, align 8
  %3 = load ptr, ptr %2, align 8
  %4 = getelementptr inbounds i8, ptr %3, i64 16
  ret ptr %4
}

; Function Attrs: mustprogress nounwind uwtable
define linkonce_odr hidden void @_ZN4llvm25SmallVectorTemplateCommonINS_7SDValueEvEC2Em(ptr noundef nonnull align 8 dereferenceable(16) %0, i64 noundef %1) unnamed_addr #0 comdat align 2 {
  %3 = alloca ptr, align 8
  %4 = alloca i64, align 8
  store ptr %0, ptr %3, align 8
  store i64 %1, ptr %4, align 8
  %5 = load ptr, ptr %3, align 8
  %6 = call noundef ptr @_ZNK4llvm25SmallVectorTemplateCommonINS_7SDValueEvE10getFirstElEv(ptr noundef nonnull align 8 dereferenceable(16) %5)
  %7 = load i64, ptr %4, align 8
  call void @_ZN4llvm15SmallVectorBaseIjEC2EPvm(ptr noundef nonnull align 8 dereferenceable(16) %5, ptr noundef %6, i64 noundef %7)
  ret void
}

; Function Attrs: mustprogress nounwind uwtable
define linkonce_odr hidden noundef zeroext i1 @_ZNK4llvm25SmallVectorTemplateCommonINS_7SDValueEvE7isSmallEv(ptr noundef nonnull align 8 dereferenceable(16) %0) #0 comdat align 2 {
  %2 = alloca ptr, align 8
  store ptr %0, ptr %2, align 8
  %3 = load ptr, ptr %2, align 8
  %4 = getelementptr inbounds nuw %"class.llvm::SmallVectorBase.11", ptr %3, i32 0, i32 0
  %5 = load ptr, ptr %4, align 8
  %6 = call noundef ptr @_ZNK4llvm25SmallVectorTemplateCommonINS_7SDValueEvE10getFirstElEv(ptr noundef nonnull align 8 dereferenceable(16) %3)
  %7 = icmp eq ptr %5, %6
  ret i1 %7
}

; Function Attrs: mustprogress nounwind uwtable
define linkonce_odr hidden noundef ptr @_ZNK4llvm25SmallVectorTemplateCommonINS_7SDValueEvE5beginEv(ptr noundef nonnull align 8 dereferenceable(16) %0) #0 comdat align 2 {
  %2 = alloca ptr, align 8
  store ptr %0, ptr %2, align 8
  %3 = load ptr, ptr %2, align 8
  %4 = getelementptr inbounds nuw %"class.llvm::SmallVectorBase.11", ptr %3, i32 0, i32 0
  %5 = load ptr, ptr %4, align 8
  ret ptr %5
}

; Function Attrs: mustprogress nounwind uwtable
define linkonce_odr hidden void @_ZN4llvm23SmallVectorTemplateBaseINS_7SDValueELb1EEC2Em(ptr noundef nonnull align 8 dereferenceable(16) %0, i64 noundef %1) unnamed_addr #0 comdat align 2 {
  %3 = alloca ptr, align 8
  %4 = alloca i64, align 8
  store ptr %0, ptr %3, align 8
  store i64 %1, ptr %4, align 8
  %5 = load ptr, ptr %3, align 8
  %6 = load i64, ptr %4, align 8
  call void @_ZN4llvm25SmallVectorTemplateCommonINS_7SDValueEvEC2Em(ptr noundef nonnull align 8 dereferenceable(16) %5, i64 noundef %6)
  ret void
}

; Function Attrs: mustprogress nounwind uwtable
define linkonce_odr hidden void @_ZN4llvm15SmallVectorImplINS_7SDValueEED2Ev(ptr noundef nonnull align 8 dereferenceable(16) %0) unnamed_addr #0 comdat align 2 {
  %2 = alloca ptr, align 8
  store ptr %0, ptr %2, align 8
  %3 = load ptr, ptr %2, align 8
  %4 = call noundef zeroext i1 @_ZNK4llvm25SmallVectorTemplateCommonINS_7SDValueEvE7isSmallEv(ptr noundef nonnull align 8 dereferenceable(16) %3)
  br i1 %4, label %7, label %5

5:                                                ; preds = %1
  %6 = call noundef ptr @_ZN4llvm25SmallVectorTemplateCommonINS_7SDValueEvE5beginEv(ptr noundef nonnull align 8 dereferenceable(16) %3)
  call void @free(ptr noundef %6) #13
  br label %7

7:                                                ; preds = %5, %1
  ret void
}

; Function Attrs: mustprogress nounwind uwtable
define linkonce_odr hidden void @_ZN4llvm23SmallVectorTemplateBaseINS_7SDValueELb1EE13destroy_rangeEPS1_S3_(ptr noundef %0, ptr noundef %1) #0 comdat align 2 {
  %3 = alloca ptr, align 8
  %4 = alloca ptr, align 8
  store ptr %0, ptr %3, align 8
  store ptr %1, ptr %4, align 8
  ret void
}

; Function Attrs: mustprogress nounwind uwtable
define linkonce_odr hidden noundef ptr @_ZN4llvm25SmallVectorTemplateCommonINS_7SDValueEvE3endEv(ptr noundef nonnull align 8 dereferenceable(16) %0) #0 comdat align 2 {
  %2 = alloca ptr, align 8
  store ptr %0, ptr %2, align 8
  %3 = load ptr, ptr %2, align 8
  %4 = call noundef ptr @_ZN4llvm25SmallVectorTemplateCommonINS_7SDValueEvE5beginEv(ptr noundef nonnull align 8 dereferenceable(16) %3)
  %5 = call noundef i64 @_ZNK4llvm15SmallVectorBaseIjE4sizeEv(ptr noundef nonnull align 8 dereferenceable(16) %3)
  %6 = getelementptr inbounds %"class.llvm::SDValue", ptr %4, i64 %5
  ret ptr %6
}

; Function Attrs: mustprogress nounwind uwtable
define linkonce_odr hidden noundef ptr @_ZN4llvm25SmallVectorTemplateCommonINS_7SDValueEvE5beginEv(ptr noundef nonnull align 8 dereferenceable(16) %0) #0 comdat align 2 {
  %2 = alloca ptr, align 8
  store ptr %0, ptr %2, align 8
  %3 = load ptr, ptr %2, align 8
  %4 = getelementptr inbounds nuw %"class.llvm::SmallVectorBase.11", ptr %3, i32 0, i32 0
  %5 = load ptr, ptr %4, align 8
  ret ptr %5
}

; Function Attrs: mustprogress nounwind uwtable
define linkonce_odr hidden noundef ptr @_ZNK4llvm25SmallVectorTemplateCommonINS_7SDValueEvE4dataEv(ptr noundef nonnull align 8 dereferenceable(16) %0) #0 comdat align 2 {
  %2 = alloca ptr, align 8
  store ptr %0, ptr %2, align 8
  %3 = load ptr, ptr %2, align 8
  %4 = call noundef ptr @_ZNK4llvm25SmallVectorTemplateCommonINS_7SDValueEvE5beginEv(ptr noundef nonnull align 8 dereferenceable(16) %3)
  ret ptr %4
}

; Function Attrs: mustprogress nounwind uwtable
define linkonce_odr hidden noundef ptr @_ZNK4llvm8ArrayRefINS_5SDUseEE3endEv(ptr noundef nonnull align 8 dereferenceable(16) %0) #0 comdat align 2 {
  %2 = alloca ptr, align 8
  store ptr %0, ptr %2, align 8
  %3 = load ptr, ptr %2, align 8
  %4 = getelementptr inbounds nuw %"class.llvm::ArrayRef.454", ptr %3, i32 0, i32 0
  %5 = load ptr, ptr %4, align 8
  %6 = getelementptr inbounds nuw %"class.llvm::ArrayRef.454", ptr %3, i32 0, i32 1
  %7 = load i64, ptr %6, align 8
  %8 = getelementptr inbounds %"class.llvm::SDUse", ptr %5, i64 %7
  ret ptr %8
}

; Function Attrs: mustprogress nounwind uwtable
define linkonce_odr hidden noundef ptr @_ZNK4llvm8ArrayRefINS_5SDUseEE5beginEv(ptr noundef nonnull align 8 dereferenceable(16) %0) #0 comdat align 2 {
  %2 = alloca ptr, align 8
  store ptr %0, ptr %2, align 8
  %3 = load ptr, ptr %2, align 8
  %4 = getelementptr inbounds nuw %"class.llvm::ArrayRef.454", ptr %3, i32 0, i32 0
  %5 = load ptr, ptr %4, align 8
  ret ptr %5
}

; Function Attrs: mustprogress nounwind uwtable
define linkonce_odr hidden void @_ZN4llvm15SmallVectorImplINS_7SDValueEEC2Ej(ptr noundef nonnull align 8 dereferenceable(16) %0, i32 noundef %1) unnamed_addr #0 comdat align 2 {
  %3 = alloca ptr, align 8
  %4 = alloca i32, align 4
  store ptr %0, ptr %3, align 8
  store i32 %1, ptr %4, align 4
  %5 = load ptr, ptr %3, align 8
  %6 = load i32, ptr %4, align 4
  %7 = zext i32 %6 to i64
  call void @_ZN4llvm23SmallVectorTemplateBaseINS_7SDValueELb1EEC2Em(ptr noundef nonnull align 8 dereferenceable(16) %5, i64 noundef %7)
  ret void
}

; Function Attrs: mustprogress nounwind uwtable
define linkonce_odr hidden void @_ZN4llvm8ArrayRefINS_5SDUseEEC2EPKS1_m(ptr noundef nonnull align 8 dereferenceable(16) %0, ptr noundef %1, i64 noundef %2) unnamed_addr #0 comdat align 2 {
  %4 = alloca ptr, align 8
  %5 = alloca ptr, align 8
  %6 = alloca i64, align 8
  store ptr %0, ptr %4, align 8
  store ptr %1, ptr %5, align 8
  store i64 %2, ptr %6, align 8
  %7 = load ptr, ptr %4, align 8
  %8 = getelementptr inbounds nuw %"class.llvm::ArrayRef.454", ptr %7, i32 0, i32 0
  %9 = load ptr, ptr %5, align 8
  store ptr %9, ptr %8, align 8
  %10 = getelementptr inbounds nuw %"class.llvm::ArrayRef.454", ptr %7, i32 0, i32 1
  %11 = load i64, ptr %6, align 8
  store i64 %11, ptr %10, align 8
  ret void
}

; Function Attrs: mustprogress nounwind uwtable
define linkonce_odr hidden noundef ptr @_ZNK4llvm8ArrayRefINS_5SDUseEE4dataEv(ptr noundef nonnull align 8 dereferenceable(16) %0) #0 comdat align 2 {
  %2 = alloca ptr, align 8
  store ptr %0, ptr %2, align 8
  %3 = load ptr, ptr %2, align 8
  %4 = getelementptr inbounds nuw %"class.llvm::ArrayRef.454", ptr %3, i32 0, i32 0
  %5 = load ptr, ptr %4, align 8
  ret ptr %5
}

; Function Attrs: mustprogress nounwind uwtable
define linkonce_odr hidden void @_ZN4llvm8ArrayRefINS_5SDUseEEC2EPKS1_S4_(ptr noundef nonnull align 8 dereferenceable(16) %0, ptr noundef %1, ptr noundef %2) unnamed_addr #0 comdat align 2 {
  %4 = alloca ptr, align 8
  %5 = alloca ptr, align 8
  %6 = alloca ptr, align 8
  store ptr %0, ptr %4, align 8
  store ptr %1, ptr %5, align 8
  store ptr %2, ptr %6, align 8
  %7 = load ptr, ptr %4, align 8
  %8 = getelementptr inbounds nuw %"class.llvm::ArrayRef.454", ptr %7, i32 0, i32 0
  %9 = load ptr, ptr %5, align 8
  store ptr %9, ptr %8, align 8
  %10 = getelementptr inbounds nuw %"class.llvm::ArrayRef.454", ptr %7, i32 0, i32 1
  %11 = load ptr, ptr %6, align 8
  %12 = load ptr, ptr %5, align 8
  %13 = ptrtoint ptr %11 to i64
  %14 = ptrtoint ptr %12 to i64
  %15 = sub i64 %13, %14
  %16 = sdiv exact i64 %15, 40
  store i64 %16, ptr %10, align 8
  ret void
}

; Function Attrs: mustprogress nounwind uwtable
define linkonce_odr hidden noundef ptr @_ZNK4llvm6SDNode6op_endEv(ptr noundef nonnull align 8 dereferenceable(88) %0) #0 comdat align 2 {
  %2 = alloca ptr, align 8
  store ptr %0, ptr %2, align 8
  %3 = load ptr, ptr %2, align 8
  %4 = getelementptr inbounds nuw %"class.llvm::SDNode", ptr %3, i32 0, i32 7
  %5 = load ptr, ptr %4, align 8
  %6 = getelementptr inbounds nuw %"class.llvm::SDNode", ptr %3, i32 0, i32 10
  %7 = load i16, ptr %6, align 8
  %8 = zext i16 %7 to i32
  %9 = sext i32 %8 to i64
  %10 = getelementptr inbounds %"class.llvm::SDUse", ptr %5, i64 %9
  ret ptr %10
}

; Function Attrs: mustprogress nounwind uwtable
define linkonce_odr hidden noundef ptr @_ZNK4llvm6SDNode8op_beginEv(ptr noundef nonnull align 8 dereferenceable(88) %0) #0 comdat align 2 {
  %2 = alloca ptr, align 8
  store ptr %0, ptr %2, align 8
  %3 = load ptr, ptr %2, align 8
  %4 = getelementptr inbounds nuw %"class.llvm::SDNode", ptr %3, i32 0, i32 7
  %5 = load ptr, ptr %4, align 8
  ret ptr %5
}

; Function Attrs: mustprogress nounwind uwtable
define linkonce_odr hidden void @_ZN4llvm11SmallVectorINS_7SDValueELj4EED2Ev(ptr noundef nonnull align 8 dereferenceable(80) %0) unnamed_addr #0 comdat align 2 {
  %2 = alloca ptr, align 8
  store ptr %0, ptr %2, align 8
  %3 = load ptr, ptr %2, align 8
  %4 = call noundef ptr @_ZN4llvm25SmallVectorTemplateCommonINS_7SDValueEvE5beginEv(ptr noundef nonnull align 8 dereferenceable(16) %3)
  %5 = call noundef ptr @_ZN4llvm25SmallVectorTemplateCommonINS_7SDValueEvE3endEv(ptr noundef nonnull align 8 dereferenceable(16) %3)
  call void @_ZN4llvm23SmallVectorTemplateBaseINS_7SDValueELb1EE13destroy_rangeEPS1_S3_(ptr noundef %4, ptr noundef %5)
  call void @_ZN4llvm15SmallVectorImplINS_7SDValueEED2Ev(ptr noundef nonnull align 8 dereferenceable(16) %3) #13
  ret void
}

; Function Attrs: mustprogress nounwind uwtable
define internal { ptr, i32 } @_ZN12_GLOBAL__N_119AArch64DAGToDAGISel15createZMulTupleEN4llvm8ArrayRefINS1_7SDValueEEE(ptr noundef nonnull align 8 dereferenceable(280) %0, ptr %1, i64 %2) #0 align 2 {
  %4 = alloca %"class.llvm::SDValue", align 8
  %5 = alloca %"class.llvm::ArrayRef.328", align 8
  %6 = alloca ptr, align 8
  %7 = alloca %"class.llvm::ArrayRef.328", align 8
  %8 = alloca { ptr, i32 }, align 8
  %9 = getelementptr inbounds nuw { ptr, i64 }, ptr %5, i32 0, i32 0
  store ptr %1, ptr %9, align 8
  %10 = getelementptr inbounds nuw { ptr, i64 }, ptr %5, i32 0, i32 1
  store i64 %2, ptr %10, align 8
  store ptr %0, ptr %6, align 8
  %11 = load ptr, ptr %6, align 8
  call void @llvm.memcpy.p0.p0.i64(ptr align 8 %7, ptr align 8 %5, i64 16, i1 false)
  %12 = getelementptr inbounds nuw { ptr, i64 }, ptr %7, i32 0, i32 0
  %13 = load ptr, ptr %12, align 8
  %14 = getelementptr inbounds nuw { ptr, i64 }, ptr %7, i32 0, i32 1
  %15 = load i64, ptr %14, align 8
  %16 = call { ptr, i32 } @_ZN12_GLOBAL__N_119AArch64DAGToDAGISel11createTupleEN4llvm8ArrayRefINS1_7SDValueEEEPKjS6_(ptr noundef nonnull align 8 dereferenceable(280) %11, ptr %13, i64 %15, ptr noundef @_ZZN12_GLOBAL__N_119AArch64DAGToDAGISel15createZMulTupleEN4llvm8ArrayRefINS1_7SDValueEEEE11RegClassIDs, ptr noundef @_ZZN12_GLOBAL__N_119AArch64DAGToDAGISel15createZMulTupleEN4llvm8ArrayRefINS1_7SDValueEEEE7SubRegs)
  store { ptr, i32 } %16, ptr %8, align 8
  call void @llvm.memcpy.p0.p0.i64(ptr align 8 %4, ptr align 8 %8, i64 12, i1 false)
  %17 = load { ptr, i32 }, ptr %4, align 8
  ret { ptr, i32 } %17
}

; Function Attrs: mustprogress nounwind uwtable
define linkonce_odr hidden void @_ZN4llvm8ArrayRefINS_7SDValueEEC2IvEERKNS_25SmallVectorTemplateCommonIS1_T_EE(ptr noundef nonnull align 8 dereferenceable(16) %0, ptr noundef nonnull align 8 dereferenceable(16) %1) unnamed_addr #0 comdat align 2 {
  %3 = alloca ptr, align 8
  %4 = alloca ptr, align 8
  store ptr %0, ptr %3, align 8
  store ptr %1, ptr %4, align 8
  %5 = load ptr, ptr %3, align 8
  %6 = getelementptr inbounds nuw %"class.llvm::ArrayRef.328", ptr %5, i32 0, i32 0
  %7 = load ptr, ptr %4, align 8
  %8 = call noundef ptr @_ZNK4llvm25SmallVectorTemplateCommonINS_7SDValueEvE4dataEv(ptr noundef nonnull align 8 dereferenceable(16) %7)
  store ptr %8, ptr %6, align 8
  %9 = getelementptr inbounds nuw %"class.llvm::ArrayRef.328", ptr %5, i32 0, i32 1
  %10 = load ptr, ptr %4, align 8
  %11 = call noundef i64 @_ZNK4llvm15SmallVectorBaseIjE4sizeEv(ptr noundef nonnull align 8 dereferenceable(16) %10)
  store i64 %11, ptr %9, align 8
  ret void
}

; Function Attrs: mustprogress nounwind uwtable
define linkonce_odr hidden void @_ZN4llvm11SmallVectorINS_7SDValueELj4EEC2INS_5SDUseEvEENS_8ArrayRefIT_EE(ptr noundef nonnull align 8 dereferenceable(80) %0, ptr %1, i64 %2) unnamed_addr #0 comdat align 2 {
  %4 = alloca %"class.llvm::ArrayRef.454", align 8
  %5 = alloca ptr, align 8
  %6 = getelementptr inbounds nuw { ptr, i64 }, ptr %4, i32 0, i32 0
  store ptr %1, ptr %6, align 8
  %7 = getelementptr inbounds nuw { ptr, i64 }, ptr %4, i32 0, i32 1
  store i64 %2, ptr %7, align 8
  store ptr %0, ptr %5, align 8
  %8 = load ptr, ptr %5, align 8
  call void @_ZN4llvm15SmallVectorImplINS_7SDValueEEC2Ej(ptr noundef nonnull align 8 dereferenceable(16) %8, i32 noundef 4)
  %9 = call noundef ptr @_ZNK4llvm8ArrayRefINS_5SDUseEE5beginEv(ptr noundef nonnull align 8 dereferenceable(16) %4)
  %10 = call noundef ptr @_ZNK4llvm8ArrayRefINS_5SDUseEE3endEv(ptr noundef nonnull align 8 dereferenceable(16) %4)
  call void @_ZN4llvm15SmallVectorImplINS_7SDValueEE6appendIPKNS_5SDUseEvEEvT_S7_(ptr noundef nonnull align 8 dereferenceable(16) %8, ptr noundef %9, ptr noundef %10)
  ret void
}

; Function Attrs: mustprogress nounwind uwtable
define linkonce_odr hidden { ptr, i64 } @_ZNK4llvm8ArrayRefINS_5SDUseEE5sliceEmm(ptr noundef nonnull align 8 dereferenceable(16) %0, i64 noundef %1, i64 noundef %2) #0 comdat align 2 {
  %4 = alloca %"class.llvm::ArrayRef.454", align 8
  %5 = alloca ptr, align 8
  %6 = alloca i64, align 8
  %7 = alloca i64, align 8
  store ptr %0, ptr %5, align 8
  store i64 %1, ptr %6, align 8
  store i64 %2, ptr %7, align 8
  %8 = load ptr, ptr %5, align 8
  %9 = call noundef ptr @_ZNK4llvm8ArrayRefINS_5SDUseEE4dataEv(ptr noundef nonnull align 8 dereferenceable(16) %8)
  %10 = load i64, ptr %6, align 8
  %11 = getelementptr inbounds %"class.llvm::SDUse", ptr %9, i64 %10
  %12 = load i64, ptr %7, align 8
  call void @_ZN4llvm8ArrayRefINS_5SDUseEEC2EPKS1_m(ptr noundef nonnull align 8 dereferenceable(16) %4, ptr noundef %11, i64 noundef %12)
  %13 = load { ptr, i64 }, ptr %4, align 8
  ret { ptr, i64 } %13
}

; Function Attrs: mustprogress nounwind uwtable
define linkonce_odr hidden { ptr, i64 } @_ZNK4llvm6SDNode3opsEv(ptr noundef nonnull align 8 dereferenceable(88) %0) #0 comdat align 2 {
  %2 = alloca %"class.llvm::ArrayRef.454", align 8
  %3 = alloca ptr, align 8
  store ptr %0, ptr %3, align 8
  %4 = load ptr, ptr %3, align 8
  %5 = call noundef ptr @_ZNK4llvm6SDNode8op_beginEv(ptr noundef nonnull align 8 dereferenceable(88) %4)
  %6 = call noundef ptr @_ZNK4llvm6SDNode6op_endEv(ptr noundef nonnull align 8 dereferenceable(88) %4)
  call void @_ZN4llvm8ArrayRefINS_5SDUseEEC2EPKS1_S4_(ptr noundef nonnull align 8 dereferenceable(16) %2, ptr noundef %5, ptr noundef %6)
  %7 = load { ptr, i64 }, ptr %2, align 8
  ret { ptr, i64 } %7
}

; Function Attrs: mustprogress nounwind uwtable
define internal { ptr, i32 } @"_ZZN12_GLOBAL__N_119AArch64DAGToDAGISel31SelectDestructiveMultiIntrinsicEPN4llvm6SDNodeEjbjbENK3$_0clEj"(ptr noundef nonnull align 8 dereferenceable(24) %0, i32 noundef %1) #0 align 2 {
  %3 = alloca %"class.llvm::SDValue", align 8
  %4 = alloca ptr, align 8
  %5 = alloca i32, align 4
  %6 = alloca %"class.llvm::SmallVector.422", align 8
  %7 = alloca %"class.llvm::ArrayRef.454", align 8
  %8 = alloca %"class.llvm::ArrayRef.454", align 8
  %9 = alloca %"class.llvm::ArrayRef.328", align 8
  %10 = alloca { ptr, i32 }, align 8
  store ptr %0, ptr %4, align 8
  store i32 %1, ptr %5, align 4
  %11 = load ptr, ptr %4, align 8
  %12 = getelementptr inbounds nuw %class.anon.453, ptr %11, i32 0, i32 2
  %13 = load ptr, ptr %12, align 8
  %14 = getelementptr inbounds nuw %class.anon.453, ptr %11, i32 0, i32 0
  %15 = load ptr, ptr %14, align 8
  %16 = call { ptr, i64 } @_ZNK4llvm6SDNode3opsEv(ptr noundef nonnull align 8 dereferenceable(88) %15)
  %17 = getelementptr inbounds nuw { ptr, i64 }, ptr %8, i32 0, i32 0
  %18 = extractvalue { ptr, i64 } %16, 0
  store ptr %18, ptr %17, align 8
  %19 = getelementptr inbounds nuw { ptr, i64 }, ptr %8, i32 0, i32 1
  %20 = extractvalue { ptr, i64 } %16, 1
  store i64 %20, ptr %19, align 8
  %21 = load i32, ptr %5, align 4
  %22 = zext i32 %21 to i64
  %23 = getelementptr inbounds nuw %class.anon.453, ptr %11, i32 0, i32 1
  %24 = load i32, ptr %23, align 8
  %25 = zext i32 %24 to i64
  %26 = call { ptr, i64 } @_ZNK4llvm8ArrayRefINS_5SDUseEE5sliceEmm(ptr noundef nonnull align 8 dereferenceable(16) %8, i64 noundef %22, i64 noundef %25)
  %27 = getelementptr inbounds nuw { ptr, i64 }, ptr %7, i32 0, i32 0
  %28 = extractvalue { ptr, i64 } %26, 0
  store ptr %28, ptr %27, align 8
  %29 = getelementptr inbounds nuw { ptr, i64 }, ptr %7, i32 0, i32 1
  %30 = extractvalue { ptr, i64 } %26, 1
  store i64 %30, ptr %29, align 8
  %31 = getelementptr inbounds nuw { ptr, i64 }, ptr %7, i32 0, i32 0
  %32 = load ptr, ptr %31, align 8
  %33 = getelementptr inbounds nuw { ptr, i64 }, ptr %7, i32 0, i32 1
  %34 = load i64, ptr %33, align 8
  call void @_ZN4llvm11SmallVectorINS_7SDValueELj4EEC2INS_5SDUseEvEENS_8ArrayRefIT_EE(ptr noundef nonnull align 8 dereferenceable(80) %6, ptr %32, i64 %34)
  call void @_ZN4llvm8ArrayRefINS_7SDValueEEC2IvEERKNS_25SmallVectorTemplateCommonIS1_T_EE(ptr noundef nonnull align 8 dereferenceable(16) %9, ptr noundef nonnull align 8 dereferenceable(16) %6)
  %35 = getelementptr inbounds nuw { ptr, i64 }, ptr %9, i32 0, i32 0
  %36 = load ptr, ptr %35, align 8
  %37 = getelementptr inbounds nuw { ptr, i64 }, ptr %9, i32 0, i32 1
  %38 = load i64, ptr %37, align 8
  %39 = call { ptr, i32 } @_ZN12_GLOBAL__N_119AArch64DAGToDAGISel15createZMulTupleEN4llvm8ArrayRefINS1_7SDValueEEE(ptr noundef nonnull align 8 dereferenceable(280) %13, ptr %36, i64 %38)
  store { ptr, i32 } %39, ptr %10, align 8
  call void @llvm.memcpy.p0.p0.i64(ptr align 8 %3, ptr align 8 %10, i64 12, i1 false)
  call void @_ZN4llvm11SmallVectorINS_7SDValueELj4EED2Ev(ptr noundef nonnull align 8 dereferenceable(80) %6) #13
  %40 = load { ptr, i32 }, ptr %3, align 8
  ret { ptr, i32 } %40
}