; Function Attrs: mustprogress nounwind uwtable
define internal fastcc { ptr, i32 } @"_ZZN12_GLOBAL__N_119AArch64DAGToDAGISel31SelectDestructiveMultiIntrinsicEPN4llvm6SDNodeEjbjbENK3$_0clEj"(ptr nocapture noundef nonnull readonly align 8 dereferenceable(24) %0, i32 noundef %1) unnamed_addr #0 align 2 {
  %3 = alloca %"class.llvm::SmallVector.422", align 8
  %4 = getelementptr inbounds nuw i8, ptr %0, i64 16
  %5 = load ptr, ptr %4, align 8
  %6 = load ptr, ptr %0, align 8
  %7 = getelementptr inbounds nuw i8, ptr %6, i64 40
  %8 = load ptr, ptr %7, align 8
  %9 = zext nneg i32 %1 to i64
  %10 = getelementptr inbounds nuw i8, ptr %0, i64 8
  %11 = load i32, ptr %10, align 8
  %12 = zext i32 %11 to i64
  %13 = getelementptr inbounds %"class.llvm::SDUse", ptr %8, i64 %9
  %14 = getelementptr inbounds i8, ptr %3, i64 16
  call void @_ZN4llvm15SmallVectorBaseIjEC2EPvm(ptr noundef nonnull align 8 dereferenceable(16) %3, ptr noundef nonnull %14, i64 noundef 4) #22
  %15 = getelementptr inbounds %"class.llvm::SDUse", ptr %13, i64 %12
  call void @_ZN4llvm15SmallVectorImplINS_7SDValueEE6appendIPKNS_5SDUseEvEEvT_S7_(ptr noundef nonnull align 8 dereferenceable(16) %3, ptr noundef %13, ptr noundef %15)
  %16 = load ptr, ptr %3, align 8
  %17 = call noundef i64 @_ZNK4llvm15SmallVectorBaseIjE4sizeEv(ptr noundef nonnull align 8 dereferenceable(16) %3) #22
  %18 = call fastcc { ptr, i32 } @_ZN12_GLOBAL__N_119AArch64DAGToDAGISel11createTupleEN4llvm8ArrayRefINS1_7SDValueEEEPKjS6_(ptr noundef nonnull readonly align 8 dereferenceable(280) %5, ptr readonly %16, i64 %17, ptr noundef nonnull @_ZZN12_GLOBAL__N_119AArch64DAGToDAGISel15createZMulTupleEN4llvm8ArrayRefINS1_7SDValueEEEE11RegClassIDs, ptr noundef nonnull @_ZZN12_GLOBAL__N_119AArch64DAGToDAGISel15createZMulTupleEN4llvm8ArrayRefINS1_7SDValueEEEE7SubRegs)
  %19 = call noundef i64 @_ZNK4llvm15SmallVectorBaseIjE4sizeEv(ptr noundef nonnull align 8 dereferenceable(16) %3) #22
  %20 = load ptr, ptr %3, align 8
  %21 = icmp eq ptr %20, %14
  br i1 %21, label %_ZN4llvm11SmallVectorINS_7SDValueELj4EED2Ev.exit, label %22

22:                                               ; preds = %2
  call void @free(ptr noundef %20) #22
  br label %_ZN4llvm11SmallVectorINS_7SDValueELj4EED2Ev.exit

_ZN4llvm11SmallVectorINS_7SDValueELj4EED2Ev.exit: ; preds = %2, %22
  ret { ptr, i32 } %18
}